target datalayout = "e-m:e-p270:32:32-p271:32:32-p272:64:64-i64:64-i128:128-f80:128-n8:16:32:64-S128"
target triple = "x86_64-pc-linux-gnu"

%struct.gmx_ana_selvalue_t = type { i32, i32, %union.anon, i32 }
%union.anon = type { ptr }
%struct.t_methoddata_same = type { %union.anon.0, i32, %union.anon.1, ptr, i8 }
%union.anon.0 = type { ptr }
%union.anon.1 = type { ptr }
%struct.gmx_ana_index_t = type { i32, ptr, i32 }

; Function Attrs: mustprogress nounwind uwtable
define internal void @_ZL17evaluate_same_intRKN3gmx20SelMethodEvalContextEP15gmx_ana_index_tP18gmx_ana_selvalue_tPv(ptr noundef nonnull align 8 dereferenceable(24) %0, ptr noundef %1, ptr noundef %2, ptr noundef %3) #1 {
  %5 = alloca ptr, align 8
  %6 = alloca ptr, align 8
  %7 = alloca ptr, align 8
  %8 = alloca ptr, align 8
  %9 = alloca ptr, align 8
  %10 = alloca i32, align 4
  %11 = alloca i32, align 4
  %12 = alloca i32, align 4
  %13 = alloca i32, align 4
  %14 = alloca i32, align 4
  %15 = alloca i32, align 4
  store ptr %0, ptr %5, align 8
  store ptr %1, ptr %6, align 8
  store ptr %2, ptr %7, align 8
  store ptr %3, ptr %8, align 8
  %16 = load ptr, ptr %8, align 8
  store ptr %16, ptr %9, align 8
  %17 = load ptr, ptr %7, align 8
  %18 = getelementptr inbounds %struct.gmx_ana_selvalue_t, ptr %17, i32 0, i32 2
  %19 = load ptr, ptr %18, align 8
  %20 = getelementptr inbounds %struct.gmx_ana_index_t, ptr %19, i32 0, i32 0
  store i32 0, ptr %20, align 8
  store i32 0, ptr %11, align 4
  store i32 0, ptr %10, align 4
  br label %21

21:                                               ; preds = %248, %4
  %22 = load i32, ptr %11, align 4
  %23 = load ptr, ptr %6, align 8
  %24 = getelementptr inbounds %struct.gmx_ana_index_t, ptr %23, i32 0, i32 0
  %25 = load i32, ptr %24, align 8
  %26 = icmp slt i32 %22, %25
  br i1 %26, label %27, label %249

27:                                               ; preds = %21
  %28 = load ptr, ptr %9, align 8
  %29 = getelementptr inbounds %struct.t_methoddata_same, ptr %28, i32 0, i32 4
  %30 = load i8, ptr %29, align 8
  %31 = trunc i8 %30 to i1
  br i1 %31, label %32, label %61

32:                                               ; preds = %27
  br label %33

33:                                               ; preds = %57, %32
  %34 = load i32, ptr %10, align 4
  %35 = load ptr, ptr %9, align 8
  %36 = getelementptr inbounds %struct.t_methoddata_same, ptr %35, i32 0, i32 1
  %37 = load i32, ptr %36, align 8
  %38 = icmp slt i32 %34, %37
  br i1 %38, label %39, label %55

39:                                               ; preds = %33
  %40 = load ptr, ptr %9, align 8
  %41 = getelementptr inbounds %struct.t_methoddata_same, ptr %40, i32 0, i32 2
  %42 = load ptr, ptr %41, align 8
  %43 = load i32, ptr %10, align 4
  %44 = sext i32 %43 to i64
  %45 = getelementptr inbounds i32, ptr %42, i64 %44
  %46 = load i32, ptr %45, align 4
  %47 = load ptr, ptr %9, align 8
  %48 = getelementptr inbounds %struct.t_methoddata_same, ptr %47, i32 0, i32 0
  %49 = load ptr, ptr %48, align 8
  %50 = load i32, ptr %11, align 4
  %51 = sext i32 %50 to i64
  %52 = getelementptr inbounds i32, ptr %49, i64 %51
  %53 = load i32, ptr %52, align 4
  %54 = icmp slt i32 %46, %53
  br label %55

55:                                               ; preds = %39, %33
  %56 = phi i1 [ false, %33 ], [ %54, %39 ]
  br i1 %56, label %57, label %60

57:                                               ; preds = %55
  %58 = load i32, ptr %10, align 4
  %59 = add nsw i32 %58, 1
  store i32 %59, ptr %10, align 4
  br label %33, !llvm.loop !8

60:                                               ; preds = %55
  br label %119

61:                                               ; preds = %27
  store i32 0, ptr %12, align 4
  %62 = load ptr, ptr %9, align 8
  %63 = getelementptr inbounds %struct.t_methoddata_same, ptr %62, i32 0, i32 1
  %64 = load i32, ptr %63, align 8
  store i32 %64, ptr %13, align 4
  br label %65

65:                                               ; preds = %94, %61
  %66 = load i32, ptr %13, align 4
  %67 = load i32, ptr %12, align 4
  %68 = sub nsw i32 %66, %67
  %69 = icmp sgt i32 %68, 1
  br i1 %69, label %70, label %95

70:                                               ; preds = %65
  %71 = load i32, ptr %12, align 4
  %72 = load i32, ptr %13, align 4
  %73 = add nsw i32 %71, %72
  %74 = sdiv i32 %73, 2
  store i32 %74, ptr %14, align 4
  %75 = load ptr, ptr %9, align 8
  %76 = getelementptr inbounds %struct.t_methoddata_same, ptr %75, i32 0, i32 2
  %77 = load ptr, ptr %76, align 8
  %78 = load i32, ptr %14, align 4
  %79 = sext i32 %78 to i64
  %80 = getelementptr inbounds i32, ptr %77, i64 %79
  %81 = load i32, ptr %80, align 4
  %82 = load ptr, ptr %9, align 8
  %83 = getelementptr inbounds %struct.t_methoddata_same, ptr %82, i32 0, i32 0
  %84 = load ptr, ptr %83, align 8
  %85 = load i32, ptr %11, align 4
  %86 = sext i32 %85 to i64
  %87 = getelementptr inbounds i32, ptr %84, i64 %86
  %88 = load i32, ptr %87, align 4
  %89 = icmp sle i32 %81, %88
  br i1 %89, label %90, label %92

90:                                               ; preds = %70
  %91 = load i32, ptr %14, align 4
  store i32 %91, ptr %12, align 4
  br label %94

92:                                               ; preds = %70
  %93 = load i32, ptr %14, align 4
  store i32 %93, ptr %13, align 4
  br label %94

94:                                               ; preds = %92, %90
  br label %65, !llvm.loop !9

95:                                               ; preds = %65
  %96 = load ptr, ptr %9, align 8
  %97 = getelementptr inbounds %struct.t_methoddata_same, ptr %96, i32 0, i32 2
  %98 = load ptr, ptr %97, align 8
  %99 = load i32, ptr %12, align 4
  %100 = sext i32 %99 to i64
  %101 = getelementptr inbounds i32, ptr %98, i64 %100
  %102 = load i32, ptr %101, align 4
  %103 = load ptr, ptr %9, align 8
  %104 = getelementptr inbounds %struct.t_methoddata_same, ptr %103, i32 0, i32 0
  %105 = load ptr, ptr %104, align 8
  %106 = load i32, ptr %11, align 4
  %107 = sext i32 %106 to i64
  %108 = getelementptr inbounds i32, ptr %105, i64 %107
  %109 = load i32, ptr %108, align 4
  %110 = icmp eq i32 %102, %109
  br i1 %110, label %111, label %113

111:                                              ; preds = %95
  %112 = load i32, ptr %12, align 4
  br label %117

113:                                              ; preds = %95
  %114 = load ptr, ptr %9, align 8
  %115 = getelementptr inbounds %struct.t_methoddata_same, ptr %114, i32 0, i32 1
  %116 = load i32, ptr %115, align 8
  br label %117

117:                                              ; preds = %113, %111
  %118 = phi i32 [ %112, %111 ], [ %116, %113 ]
  store i32 %118, ptr %10, align 4
  br label %119

119:                                              ; preds = %117, %60
  %120 = load i32, ptr %10, align 4
  %121 = load ptr, ptr %9, align 8
  %122 = getelementptr inbounds %struct.t_methoddata_same, ptr %121, i32 0, i32 1
  %123 = load i32, ptr %122, align 8
  %124 = icmp eq i32 %120, %123
  br i1 %124, label %141, label %125

125:                                              ; preds = %119
  %126 = load ptr, ptr %9, align 8
  %127 = getelementptr inbounds %struct.t_methoddata_same, ptr %126, i32 0, i32 2
  %128 = load ptr, ptr %127, align 8
  %129 = load i32, ptr %10, align 4
  %130 = sext i32 %129 to i64
  %131 = getelementptr inbounds i32, ptr %128, i64 %130
  %132 = load i32, ptr %131, align 4
  %133 = load ptr, ptr %9, align 8
  %134 = getelementptr inbounds %struct.t_methoddata_same, ptr %133, i32 0, i32 0
  %135 = load ptr, ptr %134, align 8
  %136 = load i32, ptr %11, align 4
  %137 = sext i32 %136 to i64
  %138 = getelementptr inbounds i32, ptr %135, i64 %137
  %139 = load i32, ptr %138, align 4
  %140 = icmp ne i32 %132, %139
  br i1 %140, label %141, label %173

141:                                              ; preds = %125, %119
  %142 = load ptr, ptr %9, align 8
  %143 = getelementptr inbounds %struct.t_methoddata_same, ptr %142, i32 0, i32 0
  %144 = load ptr, ptr %143, align 8
  %145 = load i32, ptr %11, align 4
  %146 = sext i32 %145 to i64
  %147 = getelementptr inbounds i32, ptr %144, i64 %146
  %148 = load i32, ptr %147, align 4
  store i32 %148, ptr %15, align 4
  %149 = load i32, ptr %11, align 4
  %150 = add nsw i32 %149, 1
  store i32 %150, ptr %11, align 4
  br label %151

151:                                              ; preds = %169, %141
  %152 = load i32, ptr %11, align 4
  %153 = load ptr, ptr %6, align 8
  %154 = getelementptr inbounds %struct.gmx_ana_index_t, ptr %153, i32 0, i32 0
  %155 = load i32, ptr %154, align 8
  %156 = icmp slt i32 %152, %155
  br i1 %156, label %157, label %167

157:                                              ; preds = %151
  %158 = load ptr, ptr %9, align 8
  %159 = getelementptr inbounds %struct.t_methoddata_same, ptr %158, i32 0, i32 0
  %160 = load ptr, ptr %159, align 8
  %161 = load i32, ptr %11, align 4
  %162 = sext i32 %161 to i64
  %163 = getelementptr inbounds i32, ptr %160, i64 %162
  %164 = load i32, ptr %163, align 4
  %165 = load i32, ptr %15, align 4
  %166 = icmp eq i32 %164, %165
  br label %167

167:                                              ; preds = %157, %151
  %168 = phi i1 [ false, %151 ], [ %166, %157 ]
  br i1 %168, label %169, label %172

169:                                              ; preds = %167
  %170 = load i32, ptr %11, align 4
  %171 = add nsw i32 %170, 1
  store i32 %171, ptr %11, align 4
  br label %151, !llvm.loop !10

172:                                              ; preds = %167
  br label %222

173:                                              ; preds = %125
  br label %174

174:                                              ; preds = %198, %173
  %175 = load i32, ptr %11, align 4
  %176 = load ptr, ptr %6, align 8
  %177 = getelementptr inbounds %struct.gmx_ana_index_t, ptr %176, i32 0, i32 0
  %178 = load i32, ptr %177, align 8
  %179 = icmp slt i32 %175, %178
  br i1 %179, label %180, label %196

180:                                              ; preds = %174
  %181 = load ptr, ptr %9, align 8
  %182 = getelementptr inbounds %struct.t_methoddata_same, ptr %181, i32 0, i32 0
  %183 = load ptr, ptr %182, align 8
  %184 = load i32, ptr %11, align 4
  %185 = sext i32 %184 to i64
  %186 = getelementptr inbounds i32, ptr %183, i64 %185
  %187 = load i32, ptr %186, align 4
  %188 = load ptr, ptr %9, align 8
  %189 = getelementptr inbounds %struct.t_methoddata_same, ptr %188, i32 0, i32 2
  %190 = load ptr, ptr %189, align 8
  %191 = load i32, ptr %10, align 4
  %192 = sext i32 %191 to i64
  %193 = getelementptr inbounds i32, ptr %190, i64 %192
  %194 = load i32, ptr %193, align 4
  %195 = icmp eq i32 %187, %194
  br label %196

196:                                              ; preds = %180, %174
  %197 = phi i1 [ false, %174 ], [ %195, %180 ]
  br i1 %197, label %198, label %221

198:                                              ; preds = %196
  %199 = load ptr, ptr %6, align 8
  %200 = getelementptr inbounds %struct.gmx_ana_index_t, ptr %199, i32 0, i32 1
  %201 = load ptr, ptr %200, align 8
  %202 = load i32, ptr %11, align 4
  %203 = sext i32 %202 to i64
  %204 = getelementptr inbounds i32, ptr %201, i64 %203
  %205 = load i32, ptr %204, align 4
  %206 = load ptr, ptr %7, align 8
  %207 = getelementptr inbounds %struct.gmx_ana_selvalue_t, ptr %206, i32 0, i32 2
  %208 = load ptr, ptr %207, align 8
  %209 = getelementptr inbounds %struct.gmx_ana_index_t, ptr %208, i32 0, i32 1
  %210 = load ptr, ptr %209, align 8
  %211 = load ptr, ptr %7, align 8
  %212 = getelementptr inbounds %struct.gmx_ana_selvalue_t, ptr %211, i32 0, i32 2
  %213 = load ptr, ptr %212, align 8
  %214 = getelementptr inbounds %struct.gmx_ana_index_t, ptr %213, i32 0, i32 0
  %215 = load i32, ptr %214, align 8
  %216 = add nsw i32 %215, 1
  store i32 %216, ptr %214, align 8
  %217 = sext i32 %215 to i64
  %218 = getelementptr inbounds i32, ptr %210, i64 %217
  store i32 %205, ptr %218, align 4
  %219 = load i32, ptr %11, align 4
  %220 = add nsw i32 %219, 1
  store i32 %220, ptr %11, align 4
  br label %174, !llvm.loop !11

221:                                              ; preds = %196
  br label %222

222:                                              ; preds = %221, %172
  %223 = load i32, ptr %11, align 4
  %224 = load ptr, ptr %6, align 8
  %225 = getelementptr inbounds %struct.gmx_ana_index_t, ptr %224, i32 0, i32 0
  %226 = load i32, ptr %225, align 8
  %227 = icmp slt i32 %223, %226
  br i1 %227, label %228, label %248

228:                                              ; preds = %222
  %229 = load ptr, ptr %9, align 8
  %230 = getelementptr inbounds %struct.t_methoddata_same, ptr %229, i32 0, i32 0
  %231 = load ptr, ptr %230, align 8
  %232 = load i32, ptr %11, align 4
  %233 = sext i32 %232 to i64
  %234 = getelementptr inbounds i32, ptr %231, i64 %233
  %235 = load i32, ptr %234, align 4
  %236 = load ptr, ptr %9, align 8
  %237 = getelementptr inbounds %struct.t_methoddata_same, ptr %236, i32 0, i32 0
  %238 = load ptr, ptr %237, align 8
  %239 = load i32, ptr %11, align 4
  %240 = sub nsw i32 %239, 1
  %241 = sext i32 %240 to i64
  %242 = getelementptr inbounds i32, ptr %238, i64 %241
  %243 = load i32, ptr %242, align 4
  %244 = icmp slt i32 %235, %243
  br i1 %244, label %245, label %248

245:                                              ; preds = %228
  %246 = load ptr, ptr %9, align 8
  %247 = getelementptr inbounds %struct.t_methoddata_same, ptr %246, i32 0, i32 4
  store i8 0, ptr %247, align 8
  br label %248

248:                                              ; preds = %245, %228, %222
  br label %21, !llvm.loop !12

249:                                              ; preds = %21
  ret void
}