; Function Attrs: mustprogress nofree norecurse nosync nounwind memory(readwrite, inaccessiblemem: none) uwtable
define internal void @_ZL17evaluate_same_intRKN3gmx20SelMethodEvalContextEP15gmx_ana_index_tP18gmx_ana_selvalue_tPv(ptr nocapture nonnull readnone align 8 %0, ptr nocapture noundef readonly %1, ptr nocapture noundef readonly %2, ptr nocapture noundef %3) #2 {
  %5 = getelementptr inbounds i8, ptr %2, i64 8
  %6 = load ptr, ptr %5, align 8
  store i32 0, ptr %6, align 8
  %7 = load i32, ptr %1, align 8
  %8 = icmp sgt i32 %7, 0
  br i1 %8, label %.lr.ph90, label %._crit_edge91

.lr.ph90:                                         ; preds = %4
  %9 = getelementptr inbounds i8, ptr %3, i64 32
  %10 = getelementptr inbounds i8, ptr %3, i64 8
  %11 = getelementptr inbounds i8, ptr %3, i64 16
  %12 = getelementptr inbounds i8, ptr %1, i64 8
  br label %13

13:                                               ; preds = %.lr.ph90, %106
  %14 = phi i32 [ %7, %.lr.ph90 ], [ %107, %106 ]
  %.088 = phi i32 [ 0, %.lr.ph90 ], [ %.2115, %106 ]
  %.06587 = phi i32 [ 0, %.lr.ph90 ], [ %.3, %106 ]
  %15 = load i8, ptr %9, align 8
  %16 = trunc i8 %15 to i1
  %17 = load i32, ptr %10, align 8
  br i1 %16, label %.preheader74, label %30

.preheader74:                                     ; preds = %13
  %18 = icmp slt i32 %.088, %17
  %.pre104.pre = load ptr, ptr %3, align 8
  br i1 %18, label %.lr.ph78, label %.critedge

.lr.ph78:                                         ; preds = %.preheader74
  %19 = load ptr, ptr %11, align 8
  %20 = sext i32 %.06587 to i64
  %21 = getelementptr inbounds i32, ptr %.pre104.pre, i64 %20
  %22 = load i32, ptr %21, align 4
  %23 = sext i32 %.088 to i64
  %24 = sext i32 %17 to i64
  br label %25

25:                                               ; preds = %.lr.ph78, %29
  %indvars.iv = phi i64 [ %23, %.lr.ph78 ], [ %indvars.iv.next, %29 ]
  %26 = getelementptr inbounds i32, ptr %19, i64 %indvars.iv
  %27 = load i32, ptr %26, align 4
  %28 = icmp slt i32 %27, %22
  br i1 %28, label %29, label %.critedge.loopexit

29:                                               ; preds = %25
  %indvars.iv.next = add nsw i64 %indvars.iv, 1
  %exitcond.not = icmp eq i64 %indvars.iv.next, %24
  br i1 %exitcond.not, label %.critedge._crit_edge, label %25, !llvm.loop !8

30:                                               ; preds = %13
  %31 = icmp sgt i32 %17, 1
  %.pre = load ptr, ptr %11, align 8
  %.pre101 = load ptr, ptr %3, align 8
  %32 = sext i32 %.06587 to i64
  %33 = getelementptr inbounds i32, ptr %.pre101, i64 %32
  %34 = load i32, ptr %33, align 4
  br i1 %31, label %.lr.ph, label %._crit_edge

.lr.ph:                                           ; preds = %30, %.lr.ph
  %.06876 = phi i32 [ %..068, %.lr.ph ], [ %17, %30 ]
  %.07075 = phi i32 [ %.070., %.lr.ph ], [ 0, %30 ]
  %35 = add nsw i32 %.06876, %.07075
  %36 = sdiv i32 %35, 2
  %37 = sext i32 %36 to i64
  %38 = getelementptr inbounds i32, ptr %.pre, i64 %37
  %39 = load i32, ptr %38, align 4
  %.not = icmp sgt i32 %39, %34
  %.070. = select i1 %.not, i32 %.07075, i32 %36
  %..068 = select i1 %.not, i32 %36, i32 %.06876
  %40 = sub nsw i32 %..068, %.070.
  %41 = icmp sgt i32 %40, 1
  br i1 %41, label %.lr.ph, label %._crit_edge, !llvm.loop !9

._crit_edge:                                      ; preds = %.lr.ph, %30
  %.070.lcssa = phi i32 [ 0, %30 ], [ %.070., %.lr.ph ]
  %42 = sext i32 %.070.lcssa to i64
  %43 = getelementptr inbounds i32, ptr %.pre, i64 %42
  %44 = load i32, ptr %43, align 4
  %45 = icmp eq i32 %44, %34
  %spec.select = select i1 %45, i32 %.070.lcssa, i32 %17
  br label %.critedge

.critedge.loopexit:                               ; preds = %25
  %46 = trunc nsw i64 %indvars.iv to i32
  br label %.critedge

.critedge:                                        ; preds = %.critedge.loopexit, %.preheader74, %._crit_edge
  %.pre104 = phi ptr [ %.pre101, %._crit_edge ], [ %.pre104.pre, %.preheader74 ], [ %.pre104.pre, %.critedge.loopexit ]
  %.2 = phi i32 [ %spec.select, %._crit_edge ], [ %.088, %.preheader74 ], [ %46, %.critedge.loopexit ]
  %47 = icmp eq i32 %.2, %17
  br i1 %47, label %.critedge._crit_edge, label %48

.critedge._crit_edge:                             ; preds = %29, %.critedge
  %.2117 = phi i32 [ %.2, %.critedge ], [ %17, %29 ]
  %.pre104113 = phi ptr [ %.pre104, %.critedge ], [ %.pre104.pre, %29 ]
  %.phi.trans.insert105 = sext i32 %.06587 to i64
  %.phi.trans.insert106 = getelementptr inbounds i32, ptr %.pre104113, i64 %.phi.trans.insert105
  %.pre107 = load i32, ptr %.phi.trans.insert106, align 4
  br label %64

48:                                               ; preds = %.critedge
  %49 = load ptr, ptr %11, align 8
  %50 = sext i32 %.2 to i64
  %51 = getelementptr inbounds i32, ptr %49, i64 %50
  %52 = load i32, ptr %51, align 4
  %53 = sext i32 %.06587 to i64
  %54 = getelementptr inbounds i32, ptr %.pre104, i64 %53
  %55 = load i32, ptr %54, align 4
  %.not72 = icmp eq i32 %52, %55
  br i1 %.not72, label %.preheader, label %64

.preheader:                                       ; preds = %48
  %56 = icmp slt i32 %.06587, %14
  br i1 %56, label %.lr.ph83.preheader, label %.critedge2

.lr.ph83.preheader:                               ; preds = %.preheader
  %57 = load ptr, ptr %3, align 8
  %58 = getelementptr inbounds i32, ptr %57, i64 %53
  %59 = load i32, ptr %58, align 4
  %60 = load ptr, ptr %11, align 8
  %61 = getelementptr inbounds i32, ptr %60, i64 %50
  %62 = load i32, ptr %61, align 4
  %63 = icmp eq i32 %59, %62
  br i1 %63, label %.lr.ph131, label %.critedge2.loopexit92

64:                                               ; preds = %.critedge._crit_edge, %48
  %.2116 = phi i32 [ %.2117, %.critedge._crit_edge ], [ %.2, %48 ]
  %.pre104114 = phi ptr [ %.pre104113, %.critedge._crit_edge ], [ %.pre104, %48 ]
  %.pre-phi = phi i64 [ %.phi.trans.insert105, %.critedge._crit_edge ], [ %53, %48 ]
  %65 = phi i32 [ %.pre107, %.critedge._crit_edge ], [ %55, %48 ]
  %66 = sext i32 %14 to i64
  br label %67

67:                                               ; preds = %69, %64
  %indvars.iv97 = phi i64 [ %indvars.iv.next98, %69 ], [ %.pre-phi, %64 ]
  %indvars.iv.next98 = add nsw i64 %indvars.iv97, 1
  %68 = icmp slt i64 %indvars.iv.next98, %66
  br i1 %68, label %69, label %._crit_edge91

69:                                               ; preds = %67
  %70 = getelementptr inbounds i32, ptr %.pre104114, i64 %indvars.iv.next98
  %71 = load i32, ptr %70, align 4
  %72 = icmp eq i32 %71, %65
  br i1 %72, label %67, label %.critedge2.loopexit, !llvm.loop !10

.lr.ph83:                                         ; preds = %.lr.ph131
  %73 = load ptr, ptr %3, align 8
  %74 = getelementptr inbounds i32, ptr %73, i64 %indvars.iv.next95
  %75 = load i32, ptr %74, align 4
  %76 = load ptr, ptr %11, align 8
  %77 = getelementptr inbounds i32, ptr %76, i64 %50
  %78 = load i32, ptr %77, align 4
  %79 = icmp eq i32 %75, %78
  br i1 %79, label %.lr.ph131, label %.critedge2.loopexit92, !llvm.loop !11

.lr.ph131:                                        ; preds = %.lr.ph83.preheader, %.lr.ph83
  %indvars.iv94130 = phi i64 [ %indvars.iv.next95, %.lr.ph83 ], [ %53, %.lr.ph83.preheader ]
  %80 = load ptr, ptr %12, align 8
  %81 = getelementptr inbounds i32, ptr %80, i64 %indvars.iv94130
  %82 = load i32, ptr %81, align 4
  %83 = load ptr, ptr %5, align 8
  %84 = getelementptr inbounds i8, ptr %83, i64 8
  %85 = load ptr, ptr %84, align 8
  %86 = load i32, ptr %83, align 8
  %87 = add nsw i32 %86, 1
  store i32 %87, ptr %83, align 8
  %88 = sext i32 %86 to i64
  %89 = getelementptr inbounds i32, ptr %85, i64 %88
  store i32 %82, ptr %89, align 4
  %indvars.iv.next95 = add nsw i64 %indvars.iv94130, 1
  %90 = load i32, ptr %1, align 8
  %91 = sext i32 %90 to i64
  %92 = icmp slt i64 %indvars.iv.next95, %91
  br i1 %92, label %.lr.ph83, label %.critedge2.loopexit92, !llvm.loop !11

.critedge2.loopexit92:                            ; preds = %.lr.ph131, %.lr.ph83, %.lr.ph83.preheader
  %93 = phi i32 [ %14, %.lr.ph83.preheader ], [ %90, %.lr.ph83 ], [ %90, %.lr.ph131 ]
  %.3.ph.in = phi i64 [ %53, %.lr.ph83.preheader ], [ %indvars.iv.next95, %.lr.ph83 ], [ %indvars.iv.next95, %.lr.ph131 ]
  %.3.ph = trunc i64 %.3.ph.in to i32
  br label %.critedge2

.critedge2.loopexit:                              ; preds = %69
  %94 = trunc nsw i64 %indvars.iv.next98 to i32
  br label %.critedge2

.critedge2:                                       ; preds = %.critedge2.loopexit, %.critedge2.loopexit92, %.preheader
  %.2115 = phi i32 [ %.2, %.preheader ], [ %.2, %.critedge2.loopexit92 ], [ %.2116, %.critedge2.loopexit ]
  %95 = phi i32 [ %14, %.preheader ], [ %93, %.critedge2.loopexit92 ], [ %14, %.critedge2.loopexit ]
  %.3 = phi i32 [ %.06587, %.preheader ], [ %.3.ph, %.critedge2.loopexit92 ], [ %94, %.critedge2.loopexit ]
  %96 = icmp slt i32 %.3, %95
  br i1 %96, label %97, label %106

97:                                               ; preds = %.critedge2
  %98 = load ptr, ptr %3, align 8
  %99 = sext i32 %.3 to i64
  %100 = getelementptr inbounds i32, ptr %98, i64 %99
  %101 = load i32, ptr %100, align 4
  %102 = getelementptr i8, ptr %100, i64 -4
  %103 = load i32, ptr %102, align 4
  %104 = icmp slt i32 %101, %103
  br i1 %104, label %105, label %106

105:                                              ; preds = %97
  store i8 0, ptr %9, align 8
  %.pre108 = load i32, ptr %1, align 8
  br label %106

106:                                              ; preds = %105, %97, %.critedge2
  %107 = phi i32 [ %.pre108, %105 ], [ %95, %97 ], [ %95, %.critedge2 ]
  %108 = icmp slt i32 %.3, %107
  br i1 %108, label %13, label %._crit_edge91, !llvm.loop !12

._crit_edge91:                                    ; preds = %106, %67, %4
  ret void
}